target datalayout = "e-m:e-p270:32:32-p271:32:32-p272:64:64-i64:64-i128:128-f80:128-n8:16:32:64-S128"
target triple = "x86_64-pc-linux-gnu"

%struct.lua_State = type { %struct.GCRef, i8, i8, i8, i8, %struct.MRef, %struct.GCRef, ptr, ptr, %struct.MRef, %struct.MRef, %struct.GCRef, %struct.GCRef, ptr, i32 }
%struct.MRef = type { i64 }
%struct.GCRef = type { i64 }
%union.TValue = type { i64 }

@.str = private unnamed_addr constant [6 x i8] c"table\00", align 1
@lj_lib_cf_table = internal constant [4 x ptr] [ptr @lj_cf_table_maxn, ptr @lj_cf_table_insert, ptr @lj_cf_table_concat, ptr @lj_cf_table_sort], align 16
@.str.1 = private unnamed_addr constant [10 x i8] c"table.new\00", align 1
@.str.2 = private unnamed_addr constant [12 x i8] c"table.clear\00", align 1

; Function Attrs: nounwind uwtable
define dso_local i32 @luaopen_table(ptr noundef %0) #0 {
  %2 = alloca ptr, align 8
  store ptr %0, ptr %2, align 8, !tbaa !4
  %3 = load ptr, ptr %2, align 8, !tbaa !4
  call void @lj_lib_register(ptr noundef %3, ptr noundef @.str, ptr noundef @lj_lib_init_table, ptr noundef @lj_lib_cf_table)
  %4 = load ptr, ptr %2, align 8, !tbaa !4
  %5 = load ptr, ptr %2, align 8, !tbaa !4
  %6 = getelementptr inbounds nuw %struct.lua_State, ptr %5, i32 0, i32 8
  %7 = load ptr, ptr %6, align 8, !tbaa !9
  %8 = getelementptr inbounds %union.TValue, ptr %7, i64 -1
  %9 = getelementptr inbounds nuw %struct.GCRef, ptr %8, i32 0, i32 0
  %10 = load i64, ptr %9, align 8, !tbaa !16
  %11 = and i64 %10, 140737488355327
  %12 = inttoptr i64 %11 to ptr
  call void @lj_lib_prereg(ptr noundef %4, ptr noundef @.str.1, ptr noundef @luaopen_table_new, ptr noundef %12)
  %13 = load ptr, ptr %2, align 8, !tbaa !4
  %14 = load ptr, ptr %2, align 8, !tbaa !4
  %15 = getelementptr inbounds nuw %struct.lua_State, ptr %14, i32 0, i32 8
  %16 = load ptr, ptr %15, align 8, !tbaa !9
  %17 = getelementptr inbounds %union.TValue, ptr %16, i64 -1
  %18 = getelementptr inbounds nuw %struct.GCRef, ptr %17, i32 0, i32 0
  %19 = load i64, ptr %18, align 8, !tbaa !16
  %20 = and i64 %19, 140737488355327
  %21 = inttoptr i64 %20 to ptr
  call void @lj_lib_prereg(ptr noundef %13, ptr noundef @.str.2, ptr noundef @luaopen_table_clear, ptr noundef %21)
  ret i32 1
}