; Function Attrs: nounwind uwtable
define dso_local noundef i32 @luaopen_table(ptr noundef %0) local_unnamed_addr #0 {
  tail call void @lj_lib_register(ptr noundef %0, ptr noundef nonnull @.str, ptr noundef nonnull @lj_lib_init_table, ptr noundef nonnull @lj_lib_cf_table) #4
  %2 = getelementptr inbounds nuw i8, ptr %0, i64 40
  %3 = load ptr, ptr %2, align 8, !tbaa !4
  %4 = getelementptr inbounds i8, ptr %3, i64 -8
  %5 = load i64, ptr %4, align 8, !tbaa !14
  %6 = and i64 %5, 140737488355327
  %7 = inttoptr i64 %6 to ptr
  tail call void @lj_lib_prereg(ptr noundef %0, ptr noundef nonnull @.str.1, ptr noundef nonnull @luaopen_table_new, ptr noundef %7) #4
  %8 = load ptr, ptr %2, align 8, !tbaa !4
  %9 = getelementptr inbounds i8, ptr %8, i64 -8
  %10 = load i64, ptr %9, align 8, !tbaa !14
  %11 = and i64 %10, 140737488355327
  %12 = inttoptr i64 %11 to ptr
  tail call void @lj_lib_prereg(ptr noundef %0, ptr noundef nonnull @.str.2, ptr noundef nonnull @luaopen_table_clear, ptr noundef %12) #4
  ret i32 1
}